(dp1
S'output'
p2
S''
sS'layer'
p3
S'Framework'
p4
sS'code'
p5
S''
sS'snapshot'
p6
(dp7
S'exception'
p8
(dp9
S'__getslice__'
p10
S"<method-wrapper '__getslice__' of exceptions.SystemError object>"
p11
sS'__str__'
p12
S"<method-wrapper '__str__' of exceptions.SystemError object>"
p13
sS'__reduce__'
p14
S'<built-in method __reduce__ of exceptions.SystemError object>'
p15
sS'__dict__'
p16
S'{}'
p17
sS'message'
p18
S"'compiled code is incompatible'"
p19
sS'__sizeof__'
p20
S'<built-in method __sizeof__ of exceptions.SystemError object>'
p21
sS'__init__'
p22
S"<method-wrapper '__init__' of exceptions.SystemError object>"
p23
sS'__setattr__'
p24
S"<method-wrapper '__setattr__' of exceptions.SystemError object>"
p25
sS'__reduce_ex__'
p26
S'<built-in method __reduce_ex__ of exceptions.SystemError object>'
p27
sS'__new__'
p28
S'<built-in method __new__ of type object>'
p29
sS'__format__'
p30
S'<built-in method __format__ of exceptions.SystemError object>'
p31
sS'__class__'
p32
S"<type 'exceptions.SystemError'>"
p33
sS'__doc__'
p34
S"'Internal error in the Python interpreter.\\n\\nPleas...ersion, and the hardware/OS platform and version.'"
p35
sS'__getitem__'
p36
S"<method-wrapper '__getitem__' of exceptions.SystemError object>"
p37
sS'__setstate__'
p38
S'<built-in method __setstate__ of exceptions.SystemError object>'
p39
sS'__getattribute__'
p40
S"<method-wrapper '__getattribute__' of exceptions.SystemError object>"
p41
sS'args'
p42
S"('compiled code is incompatible',)"
p43
sS'__subclasshook__'
p44
S'<built-in method __subclasshook__ of type object>'
p45
sS'__unicode__'
p46
S'<built-in method __unicode__ of exceptions.SystemError object>'
p47
sS'__delattr__'
p48
S"<method-wrapper '__delattr__' of exceptions.SystemError object>"
p49
sS'__repr__'
p50
S"<method-wrapper '__repr__' of exceptions.SystemError object>"
p51
sS'__hash__'
p52
S"<method-wrapper '__hash__' of exceptions.SystemError object>"
p53
ssS'evalue'
p54
S'compiled code is incompatible'
p55
sS'request'
p56
cgluon.html
XML_unpickle
p57
(S's\xf0`\x00\x00<div><table><tr><td style="font-weight:bold;vertical-align:top;">ajax</td><td style="vertical-align:top;">:</td><td><div>False</div></td></tr><tr><td style="font-weight:bold;vertical-align:top;">application</td><td style="vertical-align:top;">:</td><td><div>places</div></td></tr><tr><td style="font-weight:bold;vertical-align:top;">args</td><td style="vertical-align:top;">:</td><td><div><table></table></div></td></tr><tr><td style="font-weight:bold;vertical-align:top;">cid</td><td style="vertical-align:top;">:</td><td><div>None</div></td></tr><tr><td style="font-weight:bold;vertical-align:top;">client</td><td style="vertical-align:top;">:</td><td><div>127.0.0.1</div></td></tr><tr><td style="font-weight:bold;vertical-align:top;">controller</td><td style="vertical-align:top;">:</td><td><div>default</div></td></tr><tr><td style="font-weight:bold;vertical-align:top;">cookies</td><td style="vertical-align:top;">:</td><td><div><table><tr><td style="font-weight:bold;vertical-align:top;">session_id_admin</td><td style="vertical-align:top;">:</td><td><div>127.0.0.1-17aa4f22-e7a9-4e18-a39d-494772c53259<table><tr><td style="font-weight:bold;vertical-align:top;">comment</td><td style="vertical-align:top;">:</td><td><div></div></td></tr><tr><td style="font-weight:bold;vertical-align:top;">domain</td><td style="vertical-align:top;">:</td><td><div></div></td></tr><tr><td style="font-weight:bold;vertical-align:top;">expires</td><td style="vertical-align:top;">:</td><td><div></div></td></tr><tr><td style="font-weight:bold;vertical-align:top;">httponly</td><td style="vertical-align:top;">:</td><td><div></div></td></tr><tr><td style="font-weight:bold;vertical-align:top;">max-age</td><td style="vertical-align:top;">:</td><td><div></div></td></tr><tr><td style="font-weight:bold;vertical-align:top;">path</td><td style="vertical-align:top;">:</td><td><div></div></td></tr><tr><td style="font-weight:bold;vertical-align:top;">samesite</td><td style="vertical-align:top;">:</td><td><div></div></td></tr><tr><td style="font-weight:bold;vertical-align:top;">secure</td><td style="vertical-align:top;">:</td><td><div></div></td></tr><tr><td style="font-weight:bold;vertical-align:top;">version</td><td style="vertical-align:top;">:</td><td><div></div></td></tr></table></div></td></tr><tr><td style="font-weight:bold;vertical-align:top;">session_id_welcome</td><td style="vertical-align:top;">:</td><td><div>127.0.0.1-07785285-0cdc-45b3-8a5b-0a8229db46f0<table><tr><td style="font-weight:bold;vertical-align:top;">comment</td><td style="vertical-align:top;">:</td><td><div></div></td></tr><tr><td style="font-weight:bold;vertical-align:top;">domain</td><td style="vertical-align:top;">:</td><td><div></div></td></tr><tr><td style="font-weight:bold;vertical-align:top;">expires</td><td style="vertical-align:top;">:</td><td><div></div></td></tr><tr><td style="font-weight:bold;vertical-align:top;">httponly</td><td style="vertical-align:top;">:</td><td><div></div></td></tr><tr><td style="font-weight:bold;vertical-align:top;">max-age</td><td style="vertical-align:top;">:</td><td><div></div></td></tr><tr><td style="font-weight:bold;vertical-align:top;">path</td><td style="vertical-align:top;">:</td><td><div></div></td></tr><tr><td style="font-weight:bold;vertical-align:top;">samesite</td><td style="vertical-align:top;">:</td><td><div></div></td></tr><tr><td style="font-weight:bold;vertical-align:top;">secure</td><td style="vertical-align:top;">:</td><td><div></div></td></tr><tr><td style="font-weight:bold;vertical-align:top;">version</td><td style="vertical-align:top;">:</td><td><div></div></td></tr></table></div></td></tr></table></div></td></tr><tr><td style="font-weight:bold;vertical-align:top;">env</td><td style="vertical-align:top;">:</td><td><div><table><tr><td style="font-weight:bold;vertical-align:top;">HTTP_ACCEPT</td><td style="vertical-align:top;">:</td><td><div>text/html,application/xhtml+xml,application/xml;q=0.9,image/avif,image/webp,image/apng,*/*;q=0.8,application/signed-exchange;v=b3;q=0.7</div></td></tr><tr><td style="font-weight:bold;vertical-align:top;">HTTP_ACCEPT_ENCODING</td><td style="vertical-align:top;">:</td><td><div>gzip, deflate, br, zstd</div></td></tr><tr><td style="font-weight:bold;vertical-align:top;">HTTP_ACCEPT_LANGUAGE</td><td style="vertical-align:top;">:</td><td><div>pt-BR,pt;q=0.9,en-US;q=0.8,en;q=0.7</div></td></tr><tr><td style="font-weight:bold;vertical-align:top;">HTTP_CONNECTION</td><td style="vertical-align:top;">:</td><td><div>keep-alive</div></td></tr><tr><td style="font-weight:bold;vertical-align:top;">HTTP_COOKIE</td><td style="vertical-align:top;">:</td><td><div>session_id_welcome=127.0.0.1-07785285-0cdc-45b3-8a5b-0a8229db46f0; session_id_admin=127.0.0.1-17aa4f22-e7a9-4e18-a39d-494772c53259</div></td></tr><tr><td style="font-weight:bold;vertical-align:top;">HTTP_HOST</td><td style="vertical-align:top;">:</td><td><div>127.0.0.1:8000</div></td></tr><tr><td style="font-weight:bold;vertical-align:top;">HTTP_REFERER</td><td style="vertical-align:top;">:</td><td><div>http://127.0.0.1:8000/admin/default/site</div></td></tr><tr><td style="font-weight:bold;vertical-align:top;">HTTP_SEC_CH_UA</td><td style="vertical-align:top;">:</td><td><div>&quot;Chromium&quot;;v=&quot;128&quot;, &quot;Not;A=Brand&quot;;v=&quot;24&quot;, &quot;Google Chrome&quot;;v=&quot;128&quot;</div></td></tr><tr><td style="font-weight:bold;vertical-align:top;">HTTP_SEC_CH_UA_MOBILE</td><td style="vertical-align:top;">:</td><td><div>?0</div></td></tr><tr><td style="font-weight:bold;vertical-align:top;">HTTP_SEC_CH_UA_PLATFORM</td><td style="vertical-align:top;">:</td><td><div>&quot;Windows&quot;</div></td></tr><tr><td style="font-weight:bold;vertical-align:top;">HTTP_SEC_FETCH_DEST</td><td style="vertical-align:top;">:</td><td><div>document</div></td></tr><tr><td style="font-weight:bold;vertical-align:top;">HTTP_SEC_FETCH_MODE</td><td style="vertical-align:top;">:</td><td><div>navigate</div></td></tr><tr><td style="font-weight:bold;vertical-align:top;">HTTP_SEC_FETCH_SITE</td><td style="vertical-align:top;">:</td><td><div>same-origin</div></td></tr><tr><td style="font-weight:bold;vertical-align:top;">HTTP_SEC_FETCH_USER</td><td style="vertical-align:top;">:</td><td><div>?1</div></td></tr><tr><td style="font-weight:bold;vertical-align:top;">HTTP_UPGRADE_INSECURE_REQUESTS</td><td style="vertical-align:top;">:</td><td><div>1</div></td></tr><tr><td style="font-weight:bold;vertical-align:top;">HTTP_USER_AGENT</td><td style="vertical-align:top;">:</td><td><div>Mozilla/5.0 (Windows NT 10.0; Win64; x64) AppleWebKit/537.36 (KHTML, like Gecko) Chrome/128.0.0.0 Safari/537.36</div></td></tr><tr><td style="font-weight:bold;vertical-align:top;">PATH_INFO</td><td style="vertical-align:top;">:</td><td><div>/places/default/index</div></td></tr><tr><td style="font-weight:bold;vertical-align:top;">QUERY_STRING</td><td style="vertical-align:top;">:</td><td><div></div></td></tr><tr><td style="font-weight:bold;vertical-align:top;">REMOTE_ADDR</td><td style="vertical-align:top;">:</td><td><div>127.0.0.1</div></td></tr><tr><td style="font-weight:bold;vertical-align:top;">REMOTE_PORT</td><td style="vertical-align:top;">:</td><td><div>63190</div></td></tr><tr><td style="font-weight:bold;vertical-align:top;">REQUEST_METHOD</td><td style="vertical-align:top;">:</td><td><div>GET</div></td></tr><tr><td style="font-weight:bold;vertical-align:top;">SCRIPT_NAME</td><td style="vertical-align:top;">:</td><td><div></div></td></tr><tr><td style="font-weight:bold;vertical-align:top;">SERVER_NAME</td><td style="vertical-align:top;">:</td><td><div>Ot\xe1vio</div></td></tr><tr><td style="font-weight:bold;vertical-align:top;">SERVER_PORT</td><td style="vertical-align:top;">:</td><td><div>8000</div></td></tr><tr><td style="font-weight:bold;vertical-align:top;">SERVER_PROTOCOL</td><td style="vertical-align:top;">:</td><td><div>HTTP/1.1</div></td></tr><tr><td style="font-weight:bold;vertical-align:top;">SERVER_SOFTWARE</td><td style="vertical-align:top;">:</td><td><div>Rocket 1.2.6</div></td></tr><tr><td style="font-weight:bold;vertical-align:top;">app_folders</td><td style="vertical-align:top;">:</td><td><div>set([&#x27;C:\\\\Users\\\\WINDOWS11\\\\Desktop\\\\server_e_aplicacao_para_scraping\\\\web2py27\\\\applications\\\\admin&#x27;, &#x27;C:\\\\Users\\\\WINDOWS11\\\\Desktop\\\\server_e_aplicacao_para_scraping\\\\web2py27\\\\applications\\\\welcome&#x27;, &#x27;C:\\\\Users\\\\WINDOWS11\\\\Desktop\\\\server_e_aplicacao_para_scraping\\\\web2py27\\\\applications\\\\places&#x27;])</div></td></tr><tr><td style="font-weight:bold;vertical-align:top;">applications_parent</td><td style="vertical-align:top;">:</td><td><div>C:\\Users\\WINDOWS11\\Desktop\\server_e_aplicacao_para_scraping\\web2py27</div></td></tr><tr><td style="font-weight:bold;vertical-align:top;">cmd_options</td><td style="vertical-align:top;">:</td><td><div>Namespace(add_options=False, args=[], bpython=False, ca_cert=None, config=None, cron_job=False, cron_run=False, cron_threads=None, crontabs=[], errors_to_console=False, fake_migrate=False, folder=&#x27;C:\\\\Users\\\\WINDOWS11\\\\Desktop\\\\server_e_aplicacao_para_scraping\\\\web2py27&#x27;, force_migrate=False, gae=None, import_models=False, interfaces=[], ip=&#x27;127.0.0.1&#x27;, log_filename=&#x27;httpserver.log&#x27;, log_level=30, max_threads=None, min_threads=None, no_banner=False, no_gui=False, password=&#x27;******&#x27;, pid_filename=&#x27;httpserver.pid&#x27;, plain=False, port=8000, profiler_dir=None, quiet=False, request_queue_size=5, run=None, run_doctests=None, run_system_tests=False, schedulers=[], server_cert=None, server_key=None, server_name=&#x27;Ot\\xe1vio&#x27;, shell=None, shutdown_timeout=None, socket_timeout=5, soft_cron=False, taskbar=False, timeout=10, verbose=False, with_coverage=False, with_cron=False, with_scheduler=False)</div></td></tr><tr><td style="font-weight:bold;vertical-align:top;">db_sessions</td><td style="vertical-align:top;">:</td><td><div>set([])</div></td></tr><tr><td style="font-weight:bold;vertical-align:top;">debugging</td><td style="vertical-align:top;">:</td><td><div>False</div></td></tr><tr><td style="font-weight:bold;vertical-align:top;">gluon_parent</td><td style="vertical-align:top;">:</td><td><div>C:\\Users\\WINDOWS11\\Desktop\\server_e_aplicacao_para_scraping\\web2py27</div></td></tr><tr><td style="font-weight:bold;vertical-align:top;">http_accept</td><td style="vertical-align:top;">:</td><td><div>text/html,application/xhtml+xml,application/xml;q=0.9,image/avif,image/webp,image/apng,*/*;q=0.8,application/signed-exchange;v=b3;q=0.7</div></td></tr><tr><td style="font-weight:bold;vertical-align:top;">http_accept_encoding</td><td style="vertical-align:top;">:</td><td><div>gzip, deflate, br, zstd</div></td></tr><tr><td style="font-weight:bold;vertical-align:top;">http_accept_language</td><td style="vertical-align:top;">:</td><td><div>pt-BR,pt;q=0.9,en-US;q=0.8,en;q=0.7</div></td></tr><tr><td style="font-weight:bold;vertical-align:top;">http_connection</td><td style="vertical-align:top;">:</td><td><div>keep-alive</div></td></tr><tr><td style="font-weight:bold;vertical-align:top;">http_cookie</td><td style="vertical-align:top;">:</td><td><div>session_id_welcome=127.0.0.1-07785285-0cdc-45b3-8a5b-0a8229db46f0; session_id_admin=127.0.0.1-17aa4f22-e7a9-4e18-a39d-494772c53259</div></td></tr><tr><td style="font-weight:bold;vertical-align:top;">http_host</td><td style="vertical-align:top;">:</td><td><div>127.0.0.1:8000</div></td></tr><tr><td style="font-weight:bold;vertical-align:top;">http_referer</td><td style="vertical-align:top;">:</td><td><div>http://127.0.0.1:8000/admin/default/site</div></td></tr><tr><td style="font-weight:bold;vertical-align:top;">http_sec_ch_ua</td><td style="vertical-align:top;">:</td><td><div>&quot;Chromium&quot;;v=&quot;128&quot;, &quot;Not;A=Brand&quot;;v=&quot;24&quot;, &quot;Google Chrome&quot;;v=&quot;128&quot;</div></td></tr><tr><td style="font-weight:bold;vertical-align:top;">http_sec_ch_ua_mobile</td><td style="vertical-align:top;">:</td><td><div>?0</div></td></tr><tr><td style="font-weight:bold;vertical-align:top;">http_sec_ch_ua_platform</td><td style="vertical-align:top;">:</td><td><div>&quot;Windows&quot;</div></td></tr><tr><td style="font-weight:bold;vertical-align:top;">http_sec_fetch_dest</td><td style="vertical-align:top;">:</td><td><div>document</div></td></tr><tr><td style="font-weight:bold;vertical-align:top;">http_sec_fetch_mode</td><td style="vertical-align:top;">:</td><td><div>navigate</div></td></tr><tr><td style="font-weight:bold;vertical-align:top;">http_sec_fetch_site</td><td style="vertical-align:top;">:</td><td><div>same-origin</div></td></tr><tr><td style="font-weight:bold;vertical-align:top;">http_sec_fetch_user</td><td style="vertical-align:top;">:</td><td><div>?1</div></td></tr><tr><td style="font-weight:bold;vertical-align:top;">http_upgrade_insecure_requests</td><td style="vertical-align:top;">:</td><td><div>1</div></td></tr><tr><td style="font-weight:bold;vertical-align:top;">http_user_agent</td><td style="vertical-align:top;">:</td><td><div>Mozilla/5.0 (Windows NT 10.0; Win64; x64) AppleWebKit/537.36 (KHTML, like Gecko) Chrome/128.0.0.0 Safari/537.36</div></td></tr><tr><td style="font-weight:bold;vertical-align:top;">is_jython</td><td style="vertical-align:top;">:</td><td><div>False</div></td></tr><tr><td style="font-weight:bold;vertical-align:top;">is_py2</td><td style="vertical-align:top;">:</td><td><div>True</div></td></tr><tr><td style="font-weight:bold;vertical-align:top;">is_pypy</td><td style="vertical-align:top;">:</td><td><div>False</div></td></tr><tr><td style="font-weight:bold;vertical-align:top;">is_source</td><td style="vertical-align:top;">:</td><td><div>True</div></td></tr><tr><td style="font-weight:bold;vertical-align:top;">local_hosts</td><td style="vertical-align:top;">:</td><td><div><table><tr><td><div>::ffff:127.0.0.1</div></td></tr><tr><td><div>::1</div></td></tr><tr><td><div>fe80::f3fe:c9da:b2b3:38c3%9</div></td></tr><tr><td><div>2804:7f4:c182:5a2c:4467:494a:f0f5:7712</div></td></tr><tr><td><div>2804:7f4:c182:5a2c:38d8:d4a9:cded:6f8b</div></td></tr><tr><td><div>Ot\xe1vio</div></td></tr><tr><td><div>127.0.0.1</div></td></tr><tr><td><div>192.168.15.130</div></td></tr></table></div></td></tr><tr><td style="font-weight:bold;vertical-align:top;">path_info</td><td style="vertical-align:top;">:</td><td><div>/places/default/index</div></td></tr><tr><td style="font-weight:bold;vertical-align:top;">query_string</td><td style="vertical-align:top;">:</td><td><div></div></td></tr><tr><td style="font-weight:bold;vertical-align:top;">remote_addr</td><td style="vertical-align:top;">:</td><td><div>127.0.0.1</div></td></tr><tr><td style="font-weight:bold;vertical-align:top;">remote_port</td><td style="vertical-align:top;">:</td><td><div>63190</div></td></tr><tr><td style="font-weight:bold;vertical-align:top;">request_method</td><td style="vertical-align:top;">:</td><td><div>GET</div></td></tr><tr><td style="font-weight:bold;vertical-align:top;">request_uri</td><td style="vertical-align:top;">:</td><td><div>/places/default/index</div></td></tr><tr><td style="font-weight:bold;vertical-align:top;">script_name</td><td style="vertical-align:top;">:</td><td><div></div></td></tr><tr><td style="font-weight:bold;vertical-align:top;">server_name</td><td style="vertical-align:top;">:</td><td><div>Ot\xe1vio</div></td></tr><tr><td style="font-weight:bold;vertical-align:top;">server_port</td><td style="vertical-align:top;">:</td><td><div>8000</div></td></tr><tr><td style="font-weight:bold;vertical-align:top;">server_protocol</td><td style="vertical-align:top;">:</td><td><div>HTTP/1.1</div></td></tr><tr><td style="font-weight:bold;vertical-align:top;">server_software</td><td style="vertical-align:top;">:</td><td><div>Rocket 1.2.6</div></td></tr><tr><td style="font-weight:bold;vertical-align:top;">web2py_path</td><td style="vertical-align:top;">:</td><td><div>C:\\Users\\WINDOWS11\\Desktop\\server_e_aplicacao_para_scraping\\web2py27</div></td></tr><tr><td style="font-weight:bold;vertical-align:top;">web2py_version</td><td style="vertical-align:top;">:</td><td><div>2.22.3-stable+timestamp.2022.02.15.15.14.38</div></td></tr><tr><td style="font-weight:bold;vertical-align:top;">wsgi.errors</td><td style="vertical-align:top;">:</td><td><div>&lt;open file &#x27;&lt;stderr&gt;&#x27;, mode &#x27;w&#x27; at 0x00000000035BF1E0&gt;</div></td></tr><tr><td style="font-weight:bold;vertical-align:top;">wsgi.file_wrapper</td><td style="vertical-align:top;">:</td><td><div>&lt;class wsgiref.util.FileWrapper at 0x00000000052A7AC8&gt;</div></td></tr><tr><td style="font-weight:bold;vertical-align:top;">wsgi.input</td><td style="vertical-align:top;">:</td><td><div>&lt;socket._fileobject object at 0x0000000008324E48&gt;</div></td></tr><tr><td style="font-weight:bold;vertical-align:top;">wsgi.multiprocess</td><td style="vertical-align:top;">:</td><td><div>False</div></td></tr><tr><td style="font-weight:bold;vertical-align:top;">wsgi.multithread</td><td style="vertical-align:top;">:</td><td><div>True</div></td></tr><tr><td style="font-weight:bold;vertical-align:top;">wsgi.run_once</td><td style="vertical-align:top;">:</td><td><div>False</div></td></tr><tr><td style="font-weight:bold;vertical-align:top;">wsgi.url_scheme</td><td style="vertical-align:top;">:</td><td><div>http</div></td></tr><tr><td style="font-weight:bold;vertical-align:top;">wsgi.version</td><td style="vertical-align:top;">:</td><td><div><table><tr><td><div>1</div></td></tr><tr><td><div>0</div></td></tr></table></div></td></tr><tr><td style="font-weight:bold;vertical-align:top;">wsgi_errors</td><td style="vertical-align:top;">:</td><td><div>&lt;open file &#x27;&lt;stderr&gt;&#x27;, mode &#x27;w&#x27; at 0x00000000035BF1E0&gt;</div></td></tr><tr><td style="font-weight:bold;vertical-align:top;">wsgi_file_wrapper</td><td style="vertical-align:top;">:</td><td><div>&lt;class wsgiref.util.FileWrapper at 0x00000000052A7AC8&gt;</div></td></tr><tr><td style="font-weight:bold;vertical-align:top;">wsgi_input</td><td style="vertical-align:top;">:</td><td><div>&lt;socket._fileobject object at 0x0000000008324E48&gt;</div></td></tr><tr><td style="font-weight:bold;vertical-align:top;">wsgi_multiprocess</td><td style="vertical-align:top;">:</td><td><div>False</div></td></tr><tr><td style="font-weight:bold;vertical-align:top;">wsgi_multithread</td><td style="vertical-align:top;">:</td><td><div>True</div></td></tr><tr><td style="font-weight:bold;vertical-align:top;">wsgi_run_once</td><td style="vertical-align:top;">:</td><td><div>False</div></td></tr><tr><td style="font-weight:bold;vertical-align:top;">wsgi_url_scheme</td><td style="vertical-align:top;">:</td><td><div>http</div></td></tr><tr><td style="font-weight:bold;vertical-align:top;">wsgi_version</td><td style="vertical-align:top;">:</td><td><div><table><tr><td><div>1</div></td></tr><tr><td><div>0</div></td></tr></table></div></td></tr></table></div></td></tr><tr><td style="font-weight:bold;vertical-align:top;">extension</td><td style="vertical-align:top;">:</td><td><div>html</div></td></tr><tr><td style="font-weight:bold;vertical-align:top;">folder</td><td style="vertical-align:top;">:</td><td><div>C:\\Users\\WINDOWS11\\Desktop\\server_e_aplicacao_para_scraping\\web2py27\\applications\\places</div></td></tr><tr><td style="font-weight:bold;vertical-align:top;">function</td><td style="vertical-align:top;">:</td><td><div>index</div></td></tr><tr><td style="font-weight:bold;vertical-align:top;">global_settings</td><td style="vertical-align:top;">:</td><td><div><table><tr><td style="font-weight:bold;vertical-align:top;">app_folders</td><td style="vertical-align:top;">:</td><td><div>set([&#x27;C:\\\\Users\\\\WINDOWS11\\\\Desktop\\\\server_e_aplicacao_para_scraping\\\\web2py27\\\\applications\\\\admin&#x27;, &#x27;C:\\\\Users\\\\WINDOWS11\\\\Desktop\\\\server_e_aplicacao_para_scraping\\\\web2py27\\\\applications\\\\welcome&#x27;, &#x27;C:\\\\Users\\\\WINDOWS11\\\\Desktop\\\\server_e_aplicacao_para_scraping\\\\web2py27\\\\applications\\\\places&#x27;])</div></td></tr><tr><td style="font-weight:bold;vertical-align:top;">applications_parent</td><td style="vertical-align:top;">:</td><td><div>C:\\Users\\WINDOWS11\\Desktop\\server_e_aplicacao_para_scraping\\web2py27</div></td></tr><tr><td style="font-weight:bold;vertical-align:top;">cmd_options</td><td style="vertical-align:top;">:</td><td><div>Namespace(add_options=False, args=[], bpython=False, ca_cert=None, config=None, cron_job=False, cron_run=False, cron_threads=None, crontabs=[], errors_to_console=False, fake_migrate=False, folder=&#x27;C:\\\\Users\\\\WINDOWS11\\\\Desktop\\\\server_e_aplicacao_para_scraping\\\\web2py27&#x27;, force_migrate=False, gae=None, import_models=False, interfaces=[], ip=&#x27;127.0.0.1&#x27;, log_filename=&#x27;httpserver.log&#x27;, log_level=30, max_threads=None, min_threads=None, no_banner=False, no_gui=False, password=&#x27;******&#x27;, pid_filename=&#x27;httpserver.pid&#x27;, plain=False, port=8000, profiler_dir=None, quiet=False, request_queue_size=5, run=None, run_doctests=None, run_system_tests=False, schedulers=[], server_cert=None, server_key=None, server_name=&#x27;Ot\\xe1vio&#x27;, shell=None, shutdown_timeout=None, socket_timeout=5, soft_cron=False, taskbar=False, timeout=10, verbose=False, with_coverage=False, with_cron=False, with_scheduler=False)</div></td></tr><tr><td style="font-weight:bold;vertical-align:top;">db_sessions</td><td style="vertical-align:top;">:</td><td><div>set([])</div></td></tr><tr><td style="font-weight:bold;vertical-align:top;">debugging</td><td style="vertical-align:top;">:</td><td><div>False</div></td></tr><tr><td style="font-weight:bold;vertical-align:top;">gluon_parent</td><td style="vertical-align:top;">:</td><td><div>C:\\Users\\WINDOWS11\\Desktop\\server_e_aplicacao_para_scraping\\web2py27</div></td></tr><tr><td style="font-weight:bold;vertical-align:top;">is_jython</td><td style="vertical-align:top;">:</td><td><div>False</div></td></tr><tr><td style="font-weight:bold;vertical-align:top;">is_py2</td><td style="vertical-align:top;">:</td><td><div>True</div></td></tr><tr><td style="font-weight:bold;vertical-align:top;">is_pypy</td><td style="vertical-align:top;">:</td><td><div>False</div></td></tr><tr><td style="font-weight:bold;vertical-align:top;">is_source</td><td style="vertical-align:top;">:</td><td><div>True</div></td></tr><tr><td style="font-weight:bold;vertical-align:top;">local_hosts</td><td style="vertical-align:top;">:</td><td><div><table><tr><td><div>::ffff:127.0.0.1</div></td></tr><tr><td><div>::1</div></td></tr><tr><td><div>fe80::f3fe:c9da:b2b3:38c3%9</div></td></tr><tr><td><div>2804:7f4:c182:5a2c:4467:494a:f0f5:7712</div></td></tr><tr><td><div>2804:7f4:c182:5a2c:38d8:d4a9:cded:6f8b</div></td></tr><tr><td><div>Ot\xe1vio</div></td></tr><tr><td><div>127.0.0.1</div></td></tr><tr><td><div>192.168.15.130</div></td></tr></table></div></td></tr><tr><td style="font-weight:bold;vertical-align:top;">web2py_version</td><td style="vertical-align:top;">:</td><td><div>2.22.3-stable+timestamp.2022.02.15.15.14.38</div></td></tr></table></div></td></tr><tr><td style="font-weight:bold;vertical-align:top;">is_https</td><td style="vertical-align:top;">:</td><td><div>False</div></td></tr><tr><td style="font-weight:bold;vertical-align:top;">is_local</td><td style="vertical-align:top;">:</td><td><div>True</div></td></tr><tr><td style="font-weight:bold;vertical-align:top;">is_restful</td><td style="vertical-align:top;">:</td><td><div>False</div></td></tr><tr><td style="font-weight:bold;vertical-align:top;">is_scheduler</td><td style="vertical-align:top;">:</td><td><div>False</div></td></tr><tr><td style="font-weight:bold;vertical-align:top;">is_shell</td><td style="vertical-align:top;">:</td><td><div>False</div></td></tr><tr><td style="font-weight:bold;vertical-align:top;">method</td><td style="vertical-align:top;">:</td><td><div>GET</div></td></tr><tr><td style="font-weight:bold;vertical-align:top;">now</td><td style="vertical-align:top;">:</td><td><div>datetime.datetime(2024, 8, 28, 11, 54, 51, 639000)</div></td></tr><tr><td style="font-weight:bold;vertical-align:top;">raw_args</td><td style="vertical-align:top;">:</td><td><div></div></td></tr><tr><td style="font-weight:bold;vertical-align:top;">raw_extension</td><td style="vertical-align:top;">:</td><td><div>None</div></td></tr><tr><td style="font-weight:bold;vertical-align:top;">url</td><td style="vertical-align:top;">:</td><td><div>/places/default/index</div></td></tr><tr><td style="font-weight:bold;vertical-align:top;">utcnow</td><td style="vertical-align:top;">:</td><td><div>datetime.datetime(2024, 8, 28, 14, 54, 51, 639000)</div></td></tr><tr><td style="font-weight:bold;vertical-align:top;">wsgi</td><td style="vertical-align:top;">:</td><td><div>&lt;gluon.main.LazyWSGI object at 0x00000000055B00C8&gt;</div></td></tr></table></div>'
tRp58
sS'frames'
p59
(lp60
(dp61
S'file'
p62
S'C:\\Users\\WINDOWS11\\Desktop\\server_e_aplicacao_para_scraping\\web2py27\\gluon\\main.py'
p63
sS'dump'
p64
(dp65
S'global serve_controller'
p66
S'<function serve_controller>'
p67
sS'session'
p68
S'<Storage {}>'
p69
sS'request'
p70
S"<Storage {'function': 'index', 'cookies': <Simpl...False, 'is_https': False, 'client': '127.0.0.1'}>"
p71
sS'response'
p72
S"<Storage {'body': <cStringIO.StringO object at 0...00000000080293C8>, 'view': 'default/index.html'}>"
p73
ssS'lnum'
p74
I439
sS'lines'
p75
(dp76
I434
S'                if global_settings.debugging and app != "admin":'
p77
sI435
S'                    import gluon.debug'
p78
sI436
S'                    # activate the debugger'
p79
sI437
S'                    gluon.debug.dbg.do_debug(mainpyfile=request.folder)'
p80
sI438
S''
sI439
S'                serve_controller(request, response, session)'
p81
sI440
S'            except HTTP as hr:'
p82
sI441
S'                http_response = hr'
p83
sI442
S''
sI443
S'                if static_file:'
p84
ssS'call'
p85
S'(environ={\'HTTP_ACCEPT\': \'text/html,application/xhtml+xml,application/xml;...,*/*;q=0.8,application/signed-exchange;v=b3;q=0.7\', \'HTTP_ACCEPT_ENCODING\': \'gzip, deflate, br, zstd\', \'HTTP_ACCEPT_LANGUAGE\': \'pt-BR,pt;q=0.9,en-US;q=0.8,en;q=0.7\', \'HTTP_CONNECTION\': \'keep-alive\', \'HTTP_COOKIE\': \'session_id_welcome=127.0.0.1-07785285-0cdc-45b3-...in=127.0.0.1-17aa4f22-e7a9-4e18-a39d-494772c53259\', \'HTTP_HOST\': \'127.0.0.1:8000\', \'HTTP_REFERER\': \'http://127.0.0.1:8000/admin/default/site\', \'HTTP_SEC_CH_UA\': \'"Chromium";v="128", "Not;A=Brand";v="24", "Google Chrome";v="128"\', \'HTTP_SEC_CH_UA_MOBILE\': \'?0\', \'HTTP_SEC_CH_UA_PLATFORM\': \'"Windows"\', ...}, responder=<function responder2>)'
p86
sS'func'
p87
S'wsgibase'
p88
sa(dp89
g62
S'C:\\Users\\WINDOWS11\\Desktop\\server_e_aplicacao_para_scraping\\web2py27\\gluon\\main.py'
p90
sg64
(dp91
S'environment'
p92
S"{'A': <class 'gluon.html.A'>, 'ANY_OF': <class 'pydal.validators.ANY_OF'>, 'ASSIGNJS': <function ASSIGNJS>, 'B': <class 'gluon.html.B'>, 'BEAUTIFY': <class 'gluon.html.BEAUTIFY'>, 'BODY': <class 'gluon.html.BODY'>, 'BR': <class 'gluon.html.BR'>, 'BUTTON': <class 'gluon.html.BUTTON'>, 'CAT': <class 'gluon.html.CAT'>, 'CENTER': <class 'gluon.html.CENTER'>, ...}"
p93
sS'global run_models_in'
p94
S'<function run_models_in>'
p95
ssg74
I173
sg75
(dp96
I168
S'    # also, make sure the flash is passed through'
p97
sI169
S'    # ##################################################'
p98
sI170
S'    # process models, controller and view (if required)'
p99
sI171
S'    # ##################################################'
p100
sI172
S''
sI173
S'    run_models_in(environment)'
p101
sI174
S'    response._view_environment = copy.copy(environment)'
p102
sI175
S'    page = run_controller_in(request.controller, request.function, environment)'
p103
sI176
S'    if isinstance(page, dict):'
p104
sI177
S'        response._vars = page'
p105
ssg85
S"(request=<Storage {'function': 'index', 'cookies': <Simpl...False, 'is_https': False, 'client': '127.0.0.1'}>, response=<Storage {'body': <cStringIO.StringO object at 0...00000000080293C8>, 'view': 'default/index.html'}>, session=<Storage {}>)"
p106
sg87
S'serve_controller'
p107
sa(dp108
g62
S'C:\\Users\\WINDOWS11\\Desktop\\server_e_aplicacao_para_scraping\\web2py27\\gluon\\compileapp.py'
p109
sg64
(dp110
S'global getcfs'
p111
S'<function getcfs>'
p112
sS'model'
p113
S"r'C:\\Users\\WINDOWS11\\Desktop\\server_e_aplicacao_pa...py27\\applications\\places\\compiled\\models.1_db.pyc'"
p114
sS'ccode'
p115
S'undefined'
p116
sS'f'
S'<function <lambda>>'
p117
ssg74
I562
sg75
(dp118
I557
S'                continue'
p119
sI558
S'            elif compiled:'
p120
sI559
S'                f = lambda: read_pyc(model)'
p121
sI560
S'            else:'
p122
sI561
S'                f = lambda: compile2(read_file(model), model)'
p123
sI562
S'            ccode = getcfs(model, model, f)'
p124
sI563
S'            restricted(ccode, environment, layer=model)'
p125
sI564
S''
sI565
S''
sI566
S'TEST_CODE = r"""'
p126
ssg85
S"(environment={'A': <class 'gluon.html.A'>, 'ANY_OF': <class 'pydal.validators.ANY_OF'>, 'ASSIGNJS': <function ASSIGNJS>, 'B': <class 'gluon.html.B'>, 'BEAUTIFY': <class 'gluon.html.BEAUTIFY'>, 'BODY': <class 'gluon.html.BODY'>, 'BR': <class 'gluon.html.BR'>, 'BUTTON': <class 'gluon.html.BUTTON'>, 'CAT': <class 'gluon.html.CAT'>, 'CENTER': <class 'gluon.html.CENTER'>, ...})"
p127
sg87
S'run_models_in'
p128
sa(dp129
g62
S'C:\\Users\\WINDOWS11\\Desktop\\server_e_aplicacao_para_scraping\\web2py27\\gluon\\cfs.py'
p130
sg64
(dp131
S'filter'
p132
S'<function <lambda>>'
p133
sS'data'
p134
g116
ssg74
I50
sg75
(dp135
I45
S'    if item and item[0] == t:'
p136
sI46
S'        return item[1]'
p137
sI47
S'    if not callable(filter):'
p138
sI48
S'        data = read_file(filename)'
p139
sI49
S'    else:'
p140
sI50
S'        data = filter()'
p141
sI51
S'    cfs_lock.acquire()'
p142
sI52
S'    cfs[key] = (t, data)'
p143
sI53
S'    cfs_lock.release()'
p144
sI54
S'    return data'
p145
ssg85
S"(key=r'C:\\Users\\WINDOWS11\\Desktop\\server_e_aplicacao_pa...py27\\applications\\places\\compiled\\models.1_db.pyc', filename=r'C:\\Users\\WINDOWS11\\Desktop\\server_e_aplicacao_pa...py27\\applications\\places\\compiled\\models.1_db.pyc', filter=<function <lambda>>)"
p146
sg87
S'getcfs'
p147
sa(dp148
g62
S'C:\\Users\\WINDOWS11\\Desktop\\server_e_aplicacao_para_scraping\\web2py27\\gluon\\compileapp.py'
p149
sg64
(dp150
S'model'
p151
S"r'C:\\Users\\WINDOWS11\\Desktop\\server_e_aplicacao_pa...py27\\applications\\places\\compiled\\models.1_db.pyc'"
p152
sS'global read_pyc'
p153
S'<function read_pyc>'
p154
sS'f'
g116
ssg74
I559
sg75
(dp155
I554
S'                n = len(path)+1'
p156
sI555
S"                fname = model[n:].replace(os.sep, '/')"
p157
sI556
S"            if not regex.search(fname) and c != 'appadmin':"
p158
sI557
S'                continue'
p159
sI558
S'            elif compiled:'
p160
sI559
S'                f = lambda: read_pyc(model)'
p161
sI560
S'            else:'
p162
sI561
S'                f = lambda: compile2(read_file(model), model)'
p163
sI562
S'            ccode = getcfs(model, model, f)'
p164
sI563
S'            restricted(ccode, environment, layer=model)'
p165
ssg85
S'()'
p166
sg87
S'<lambda>'
p167
sa(dp168
g62
S'C:\\Users\\WINDOWS11\\Desktop\\server_e_aplicacao_para_scraping\\web2py27\\gluon\\compileapp.py'
p169
sg64
(dp170
S'builtinSystemError'
p171
S"<type 'exceptions.SystemError'>"
p172
ssg74
I427
sg75
(dp173
I422
S'        a code object'
p174
sI423
S'    """'
p175
sI424
S"    data = read_file(filename, 'rb')"
p176
sI425
S'    if not global_settings.web2py_runtime_gae and \\'
p177
sI426
S'        not data.startswith(imp.get_magic()):'
p178
sI427
S"        raise SystemError('compiled code is incompatible')"
p179
sI428
S'    return marshal.loads(data[MARSHAL_HEADER_SIZE:])'
p180
sI429
S''
sI430
S''
sI431
S'REGEX_PATH_CLASS = r"[\\w%s-]" % os.sep if os.sep != \'\\\\\' else r\'[\\w\\\\-]\''
p181
ssg85
S"(filename=r'C:\\Users\\WINDOWS11\\Desktop\\server_e_aplicacao_pa...py27\\applications\\places\\compiled\\models.1_db.pyc')"
p182
sg87
S'read_pyc'
p183
sasS'pyver'
p184
S'Python 2.7.18: C:\\Users\\WINDOWS11\\miniconda3\\envs\\servidor\\python.exe (prefix: C:\\Users\\WINDOWS11\\miniconda3\\envs\\servidor)'
p185
sS'session'
p186
g57
(S's\x1a\x00\x00\x00<div><table></table></div>'
tRp187
sS'etype'
p188
S"<type 'exceptions.SystemError'>"
p189
sS'date'
p190
S'Wed Aug 28 11:54:51 2024'
p191
sS'response'
p192
g57
(S's\xda\x16\x00\x00<div><table><tr><td style="font-weight:bold;vertical-align:top;">body</td><td style="vertical-align:top;">:</td><td><div>&lt;cStringIO.StringO object at 0x00000000055AF530&gt;</div></td></tr><tr><td style="font-weight:bold;vertical-align:top;">cookies</td><td style="vertical-align:top;">:</td><td><div><table><tr><td style="font-weight:bold;vertical-align:top;">session_id_places</td><td style="vertical-align:top;">:</td><td><div>127.0.0.1-dace65fa-a56b-40ce-8eec-96abfa20c912<table><tr><td style="font-weight:bold;vertical-align:top;">comment</td><td style="vertical-align:top;">:</td><td><div></div></td></tr><tr><td style="font-weight:bold;vertical-align:top;">domain</td><td style="vertical-align:top;">:</td><td><div></div></td></tr><tr><td style="font-weight:bold;vertical-align:top;">expires</td><td style="vertical-align:top;">:</td><td><div></div></td></tr><tr><td style="font-weight:bold;vertical-align:top;">httponly</td><td style="vertical-align:top;">:</td><td><div></div></td></tr><tr><td style="font-weight:bold;vertical-align:top;">max-age</td><td style="vertical-align:top;">:</td><td><div></div></td></tr><tr><td style="font-weight:bold;vertical-align:top;">path</td><td style="vertical-align:top;">:</td><td><div>/</div></td></tr><tr><td style="font-weight:bold;vertical-align:top;">samesite</td><td style="vertical-align:top;">:</td><td><div></div></td></tr><tr><td style="font-weight:bold;vertical-align:top;">secure</td><td style="vertical-align:top;">:</td><td><div></div></td></tr><tr><td style="font-weight:bold;vertical-align:top;">version</td><td style="vertical-align:top;">:</td><td><div></div></td></tr></table></div></td></tr></table></div></td></tr><tr><td style="font-weight:bold;vertical-align:top;">delimiters</td><td style="vertical-align:top;">:</td><td><div><table><tr><td><div>{{</div></td></tr><tr><td><div>}}</div></td></tr></table></div></td></tr><tr><td style="font-weight:bold;vertical-align:top;">files</td><td style="vertical-align:top;">:</td><td><div><table></table></div></td></tr><tr><td style="font-weight:bold;vertical-align:top;">flash</td><td style="vertical-align:top;">:</td><td><div></div></td></tr><tr><td style="font-weight:bold;vertical-align:top;">form_label_separator</td><td style="vertical-align:top;">:</td><td><div>: </div></td></tr><tr><td style="font-weight:bold;vertical-align:top;">formstyle</td><td style="vertical-align:top;">:</td><td><div>table3cols</div></td></tr><tr><td style="font-weight:bold;vertical-align:top;">generic_patterns</td><td style="vertical-align:top;">:</td><td><div><table><tr><td><div>*</div></td></tr></table></div></td></tr><tr><td style="font-weight:bold;vertical-align:top;">headers</td><td style="vertical-align:top;">:</td><td><div><table><tr><td style="font-weight:bold;vertical-align:top;">X-Powered-By</td><td style="vertical-align:top;">:</td><td><div>web2py</div></td></tr></table></div></td></tr><tr><td style="font-weight:bold;vertical-align:top;">menu</td><td style="vertical-align:top;">:</td><td><div><table></table></div></td></tr><tr><td style="font-weight:bold;vertical-align:top;">meta</td><td style="vertical-align:top;">:</td><td><div><table></table></div></td></tr><tr><td style="font-weight:bold;vertical-align:top;">models_to_run</td><td style="vertical-align:top;">:</td><td><div><table><tr><td><div>^\\w+\\.py$</div></td></tr><tr><td><div>^default/\\w+\\.py$</div></td></tr><tr><td><div>^default/index/\\w+\\.py$</div></td></tr></table></div></td></tr><tr><td style="font-weight:bold;vertical-align:top;">postprocessing</td><td style="vertical-align:top;">:</td><td><div><table></table></div></td></tr><tr><td style="font-weight:bold;vertical-align:top;">session_client</td><td style="vertical-align:top;">:</td><td><div>127.0.0.1</div></td></tr><tr><td style="font-weight:bold;vertical-align:top;">session_cookie_compression_level</td><td style="vertical-align:top;">:</td><td><div>None</div></td></tr><tr><td style="font-weight:bold;vertical-align:top;">session_cookie_expires</td><td style="vertical-align:top;">:</td><td><div>None</div></td></tr><tr><td style="font-weight:bold;vertical-align:top;">session_data_name</td><td style="vertical-align:top;">:</td><td><div>session_data_places</div></td></tr><tr><td style="font-weight:bold;vertical-align:top;">session_file</td><td style="vertical-align:top;">:</td><td><div>None</div></td></tr><tr><td style="font-weight:bold;vertical-align:top;">session_filename</td><td style="vertical-align:top;">:</td><td><div>C:\\Users\\WINDOWS11\\Desktop\\server_e_aplicacao_para_scraping\\web2py27\\applications\\places\\sessions\\127.0.0.1-dace65fa-a56b-40ce-8eec-96abfa20c912</div></td></tr><tr><td style="font-weight:bold;vertical-align:top;">session_hash</td><td style="vertical-align:top;">:</td><td><div>c0762cbf4baf7f9af97c051e7fcb8083</div></td></tr><tr><td style="font-weight:bold;vertical-align:top;">session_id</td><td style="vertical-align:top;">:</td><td><div>127.0.0.1-dace65fa-a56b-40ce-8eec-96abfa20c912</div></td></tr><tr><td style="font-weight:bold;vertical-align:top;">session_id_name</td><td style="vertical-align:top;">:</td><td><div>session_id_places</div></td></tr><tr><td style="font-weight:bold;vertical-align:top;">session_masterapp</td><td style="vertical-align:top;">:</td><td><div>places</div></td></tr><tr><td style="font-weight:bold;vertical-align:top;">session_new</td><td style="vertical-align:top;">:</td><td><div>True</div></td></tr><tr><td style="font-weight:bold;vertical-align:top;">session_storage_type</td><td style="vertical-align:top;">:</td><td><div>file</div></td></tr><tr><td style="font-weight:bold;vertical-align:top;">status</td><td style="vertical-align:top;">:</td><td><div>200</div></td></tr><tr><td style="font-weight:bold;vertical-align:top;">view</td><td style="vertical-align:top;">:</td><td><div>default/index.html</div></td></tr></table></div>'
tRp193
sS'locals'
p194
(dp195
S'data'
p196
S"'\\xa7\\r\\r\\n\\x00\\x00\\x00\\x00p9\\xcff\\x88\\x06\\x00\\x00\\xe3\\x00\\x00\\x00\\x00\\x00\\x00\\x00\\x00\\x00\\x00\\x00\\x00\\x06\\x00\\x00\\x00\\x00\\x00\\x00\\x00\\xf3D\\x02\\x00\\x00\\x97\\x00e\\x00j\\x01...\\x80\\x04\\x84\\r\\xd4\\x002\\xd8!c\\xd0!c\\xd0!c\\x80\\x04\\x84\\r\\xd4\\x00\\x1e\\xe0\\t\\x0f\\x8f\\x1d\\x8a\\x1d\\x90r\\xd1\\t\\x1a\\xd4\\t\\x1a\\x80\\x06\\x80\\x06\\x80\\x06r5\\x00\\x00\\x00'"
p197
sS'filename'
p198
S"r'C:\\Users\\WINDOWS11\\Desktop\\server_e_aplicacao_pa...py27\\applications\\places\\compiled\\models.1_db.pyc'"
p199
sssS'traceback'
p200
S'Traceback (most recent call last):\n  File "C:\\Users\\WINDOWS11\\Desktop\\server_e_aplicacao_para_scraping\\web2py27\\gluon\\main.py", line 439, in wsgibase\n    serve_controller(request, response, session)\n  File "C:\\Users\\WINDOWS11\\Desktop\\server_e_aplicacao_para_scraping\\web2py27\\gluon\\main.py", line 173, in serve_controller\n    run_models_in(environment)\n  File "C:\\Users\\WINDOWS11\\Desktop\\server_e_aplicacao_para_scraping\\web2py27\\gluon\\compileapp.py", line 562, in run_models_in\n    ccode = getcfs(model, model, f)\n  File "C:\\Users\\WINDOWS11\\Desktop\\server_e_aplicacao_para_scraping\\web2py27\\gluon\\cfs.py", line 50, in getcfs\n    data = filter()\n  File "C:\\Users\\WINDOWS11\\Desktop\\server_e_aplicacao_para_scraping\\web2py27\\gluon\\compileapp.py", line 559, in <lambda>\n    f = lambda: read_pyc(model)\n  File "C:\\Users\\WINDOWS11\\Desktop\\server_e_aplicacao_para_scraping\\web2py27\\gluon\\compileapp.py", line 427, in read_pyc\n    raise SystemError(\'compiled code is incompatible\')\nSystemError: compiled code is incompatible\n'
p201
s.